Certificate:
    Data:
        Version: 1 (0x0)
        Serial Number: 17530703619976182542 (0xf349920f8b55bb0e)
    Signature Algorithm: sha1WithRSAEncryption
        Issuer: O=MongoDB, OU=DevTools, CN=DevTools CA
        Validity
            Not Before: Dec 22 09:38:52 2020 GMT
            Not After : Oct  6 09:38:52 2294 GMT
        Subject: O=MongoDB, OU=DevTools Testers, CN=Wonderwoman/emailAddress=tester@example.com
        Subject Public Key Info:
            Public Key Algorithm: rsaEncryption
                Public-Key: (4096 bit)
                Modulus:
                    00:df:5c:43:6a:8d:4f:5c:3c:99:72:15:8b:5e:f8:
                    e1:8a:e8:8d:89:ea:6a:c5:4f:0c:78:75:24:0e:e9:
                    73:b4:17:9e:08:54:90:96:cd:f6:fb:d5:1f:23:e6:
                    b8:08:ed:e0:58:0d:16:f9:8f:2d:dd:1b:c1:d7:30:
                    dc:98:72:85:13:d3:27:83:fb:5f:ca:28:60:0b:c2:
                    28:3c:c3:44:46:82:92:b3:cb:64:f7:d7:9f:72:3e:
                    42:6c:9d:cd:94:1a:15:ec:32:29:3c:dc:eb:0a:69:
                    2d:ca:35:3e:19:a8:fd:09:5a:5b:e3:f4:cb:05:4b:
                    e4:03:a1:15:51:92:fb:c8:59:9b:d2:b4:09:84:39:
                    8b:40:28:04:ef:57:2c:42:32:8e:ef:69:fe:d1:8c:
                    bc:8d:a7:ed:41:41:f1:6d:b9:e2:ae:3e:a2:28:61:
                    80:bc:dc:bc:90:8b:a0:d7:e7:f4:ab:b0:ea:6d:e7:
                    e4:7b:39:46:af:10:41:2b:4f:6d:c3:11:cf:1e:c8:
                    89:2c:d1:ba:40:c2:1e:d9:9c:73:c0:8a:fb:52:19:
                    80:7c:a5:22:d5:47:e6:8c:e0:ac:32:3e:2b:b8:6a:
                    fa:53:3a:40:6a:9e:4a:ef:e3:7e:84:af:d0:35:46:
                    94:c2:d4:95:cc:a5:e9:f0:62:cc:85:dc:0b:34:61:
                    01:27:4d:55:f9:80:c7:27:a8:b5:51:9a:5e:9c:1e:
                    26:fe:85:2a:d6:62:cc:e0:9e:7a:92:3d:63:23:6c:
                    a7:02:d9:54:8c:90:53:ff:93:b1:49:53:43:d1:d8:
                    1d:be:83:20:0c:02:e7:0a:e0:4b:e3:db:0e:ab:d0:
                    fa:9f:e3:61:c4:df:ef:7b:fd:ac:d1:a3:96:fb:d0:
                    7d:50:20:e9:8a:14:11:24:f7:6a:d9:06:45:27:fe:
                    71:e5:29:e9:ce:12:eb:bf:5e:ef:ef:10:60:22:ae:
                    ea:60:f6:ad:fe:01:5a:28:b1:71:16:e0:ef:ad:93:
                    96:0e:ea:7c:c8:c6:1f:0c:b8:29:9e:06:61:b9:d1:
                    9f:da:bd:43:3b:58:ed:93:d5:ce:84:c4:4a:8d:2c:
                    c6:17:71:2a:74:b8:c2:b7:c8:de:e2:64:62:6e:db:
                    32:ca:1d:e4:8e:8e:2e:4c:6d:10:a0:ae:f4:44:0e:
                    ae:b4:9d:88:b6:75:94:5d:61:d8:88:0b:e3:8c:da:
                    18:cb:19:91:03:10:40:8c:50:ab:23:73:5d:5d:91:
                    53:69:90:a3:2e:8a:62:be:91:e6:28:d5:10:fb:4e:
                    fa:a1:42:c3:d8:36:e0:2d:04:bd:97:88:8e:a9:e2:
                    58:ab:84:aa:09:03:9a:ab:11:8c:e4:8e:29:6a:62:
                    db:1b:43
                Exponent: 65537 (0x10001)
    Signature Algorithm: sha1WithRSAEncryption
         60:c4:19:31:38:d4:0c:6d:52:6a:90:4c:33:ba:0f:c0:4f:60:
         13:f0:54:c1:42:ff:ea:f0:25:f9:ac:d0:d6:78:8e:66:f1:1c:
         72:d8:49:89:48:d9:de:23:93:0d:c1:ed:e1:5f:28:6f:96:15:
         7c:38:10:1c:e1:e3:5c:4e:6e:b8:3c:6c:89:38:74:55:d6:1c:
         db:58:98:9e:35:c7:32:10:3a:ce:46:bc:8e:e8:2e:e7:98:77:
         d9:c6:b4:b5:5d:77:00:20:ef:18:26:49:56:0a:78:7f:1d:ff:
         0a:cc:30:9f:57:a7:12:f7:b4:d9:56:5c:2f:17:d7:dc:5e:6f:
         4c:d2:5a:54:c5:08:28:cc:6c:87:40:1a:96:f7:4b:45:79:e1:
         10:6c:80:53:84:d2:5e:27:0c:64:77:fc:a4:43:1c:c2:dc:ef:
         de:48:32:93:7f:ea:2a:0c:4f:84:98:15:97:eb:5a:bf:af:a6:
         55:89:e0:43:2c:bf:69:aa:57:5c:9d:8b:a6:ad:92:db:62:39:
         3f:f8:63:c0:fa:b2:76:9a:c9:8d:22:f0:f0:6b:c6:9a:c6:6a:
         65:22:52:31:b5:4e:e8:00:82:9b:c2:59:ec:35:8b:1a:ec:df:
         9b:aa:02:97:e6:49:18:5b:e7:bb:c1:c6:a8:ee:7c:c9:88:bc:
         ad:45:e4:33:87:ae:d0:fa:17:e5:d9:48:67:aa:a2:82:31:3b:
         74:0b:ad:cc:b3:7f:d9:4e:6f:3c:fd:e2:87:44:ed:83:fe:79:
         c0:f6:59:f9:ae:65:c5:ed:4d:0c:78:46:a7:86:21:f0:80:fc:
         fe:fd:2c:1c:2f:67:b8:85:06:0b:05:56:8c:fc:8c:0d:1d:5e:
         79:87:d9:ea:d1:08:a8:d5:fe:6b:e8:92:f4:b5:cd:ac:87:6a:
         b0:bc:60:51:b7:68:6b:e7:c6:d3:b5:3a:3f:05:87:97:4e:a0:
         00:dd:84:45:6b:63:5b:4e:f5:17:63:2d:90:4a:94:2e:23:f1:
         47:27:c3:92:5a:c2:a1:f3:ad:88:1a:98:c3:8c:e2:64:33:8f:
         57:6f:d1:e0:98:17:a1:8a:16:d2:d0:7e:ab:32:af:1f:b4:05:
         19:ec:04:4c:d0:0e:19:b1:50:05:35:fb:25:6c:1f:c4:b4:03:
         6d:5b:a2:cf:cd:db:f1:6f:a0:d4:ca:42:48:44:7f:3e:6a:42:
         8b:3b:58:ec:13:56:79:d8:63:ea:2d:d0:59:6b:cc:75:d6:14:
         8a:19:8c:12:47:34:19:21:ab:6e:ca:c8:7e:16:dd:88:e9:22:
         74:3c:69:7e:67:8c:5e:ba:38:df:46:b8:7e:ad:7e:c0:3f:9d:
         b5:05:37:83:79:0d:c7:8e
-----BEGIN CERTIFICATE-----
MIIFHzCCAwcCCQDzSZIPi1W7DjANBgkqhkiG9w0BAQUFADA7MRAwDgYDVQQKDAdN
b25nb0RCMREwDwYDVQQLDAhEZXZUb29sczEUMBIGA1UEAwwLRGV2VG9vbHMgQ0Ew
IBcNMjAxMjIyMDkzODUyWhgPMjI5NDEwMDYwOTM4NTJaMGYxEDAOBgNVBAoMB01v
bmdvREIxGTAXBgNVBAsMEERldlRvb2xzIFRlc3RlcnMxFDASBgNVBAMMC1dvbmRl
cndvbWFuMSEwHwYJKoZIhvcNAQkBFhJ0ZXN0ZXJAZXhhbXBsZS5jb20wggIiMA0G
CSqGSIb3DQEBAQUAA4ICDwAwggIKAoICAQDfXENqjU9cPJlyFYte+OGK6I2J6mrF
Twx4dSQO6XO0F54IVJCWzfb71R8j5rgI7eBYDRb5jy3dG8HXMNyYcoUT0yeD+1/K
KGALwig8w0RGgpKzy2T3159yPkJsnc2UGhXsMik83OsKaS3KNT4ZqP0JWlvj9MsF
S+QDoRVRkvvIWZvStAmEOYtAKATvVyxCMo7vaf7RjLyNp+1BQfFtueKuPqIoYYC8
3LyQi6DX5/SrsOpt5+R7OUavEEErT23DEc8eyIks0bpAwh7ZnHPAivtSGYB8pSLV
R+aM4KwyPiu4avpTOkBqnkrv436Er9A1RpTC1JXMpenwYsyF3As0YQEnTVX5gMcn
qLVRml6cHib+hSrWYszgnnqSPWMjbKcC2VSMkFP/k7FJU0PR2B2+gyAMAucK4Evj
2w6r0Pqf42HE3+97/azRo5b70H1QIOmKFBEk92rZBkUn/nHlKenOEuu/Xu/vEGAi
rupg9q3+AVoosXEW4O+tk5YO6nzIxh8MuCmeBmG50Z/avUM7WO2T1c6ExEqNLMYX
cSp0uMK3yN7iZGJu2zLKHeSOji5MbRCgrvREDq60nYi2dZRdYdiIC+OM2hjLGZED
EECMUKsjc11dkVNpkKMuimK+keYo1RD7TvqhQsPYNuAtBL2XiI6p4lirhKoJA5qr
EYzkjilqYtsbQwIDAQABMA0GCSqGSIb3DQEBBQUAA4ICAQBgxBkxONQMbVJqkEwz
ug/AT2AT8FTBQv/q8CX5rNDWeI5m8Rxy2EmJSNneI5MNwe3hXyhvlhV8OBAc4eNc
Tm64PGyJOHRV1hzbWJieNccyEDrORryO6C7nmHfZxrS1XXcAIO8YJklWCnh/Hf8K
zDCfV6cS97TZVlwvF9fcXm9M0lpUxQgozGyHQBqW90tFeeEQbIBThNJeJwxkd/yk
QxzC3O/eSDKTf+oqDE+EmBWX61q/r6ZVieBDLL9pqldcnYumrZLbYjk/+GPA+rJ2
msmNIvDwa8aaxmplIlIxtU7oAIKbwlnsNYsa7N+bqgKX5kkYW+e7wcao7nzJiLyt
ReQzh67Q+hfl2UhnqqKCMTt0C63Ms3/ZTm88/eKHRO2D/nnA9ln5rmXF7U0MeEan
hiHwgPz+/SwcL2e4hQYLBVaM/IwNHV55h9nq0Qio1f5r6JL0tc2sh2qwvGBRt2hr
58bTtTo/BYeXTqAA3YRFa2NbTvUXYy2QSpQuI/FHJ8OSWsKh862IGpjDjOJkM49X
b9HgmBehihbS0H6rMq8ftAUZ7ARM0A4ZsVAFNfslbB/EtANtW6LPzdvxb6DUykJI
RH8+akKLO1jsE1Z52GPqLdBZa8x11hSKGYwSRzQZIatuysh+Ft2I6SJ0PGl+Z4xe
ujjfRrh+rX7AP521BTeDeQ3Hjg==
-----END CERTIFICATE-----
-----BEGIN RSA PRIVATE KEY-----
MIIJKAIBAAKCAgEA31xDao1PXDyZchWLXvjhiuiNiepqxU8MeHUkDulztBeeCFSQ
ls32+9UfI+a4CO3gWA0W+Y8t3RvB1zDcmHKFE9Mng/tfyihgC8IoPMNERoKSs8tk
99efcj5CbJ3NlBoV7DIpPNzrCmktyjU+Gaj9CVpb4/TLBUvkA6EVUZL7yFmb0rQJ
hDmLQCgE71csQjKO72n+0Yy8jaftQUHxbbnirj6iKGGAvNy8kIug1+f0q7Dqbefk
ezlGrxBBK09twxHPHsiJLNG6QMIe2ZxzwIr7UhmAfKUi1UfmjOCsMj4ruGr6UzpA
ap5K7+N+hK/QNUaUwtSVzKXp8GLMhdwLNGEBJ01V+YDHJ6i1UZpenB4m/oUq1mLM
4J56kj1jI2ynAtlUjJBT/5OxSVND0dgdvoMgDALnCuBL49sOq9D6n+NhxN/ve/2s
0aOW+9B9UCDpihQRJPdq2QZFJ/5x5SnpzhLrv17v7xBgIq7qYPat/gFaKLFxFuDv
rZOWDup8yMYfDLgpngZhudGf2r1DO1jtk9XOhMRKjSzGF3EqdLjCt8je4mRibtsy
yh3kjo4uTG0QoK70RA6utJ2ItnWUXWHYiAvjjNoYyxmRAxBAjFCrI3NdXZFTaZCj
LopivpHmKNUQ+076oULD2DbgLQS9l4iOqeJYq4SqCQOaqxGM5I4pamLbG0MCAwEA
AQKCAgAaLnRwjvPYefn6l2/ox/+YCr5chi/RxPxPOlvpq4+2cnZBv7fbFXV3+3lU
+fxkf42mhJJG2nOj0VcdZErXS8Uxl7SwEc0eozDu7+lLhhAAu9l6XcMOEiZMe+PJ
W433aD9dmlufGL4sUDvf0fHfjCFs8TyIMe+CRW0Kx9z53OLKj0ZmolfjOeOKt6Ys
b+luMQL0KVaHNZn8eMyks5gbJojdp9XWKeevO6iWwOcvp67UWT6Bd4ceso4Igz1A
WGUjUnkWwKbjrAnLAXYgR+iBj0j6TKb09V5p5a2uob9NfGAfk9qX2uImHTvndqEj
6H/dXtKdK9ILVP9hABO9NRfTIfPCcYewBN0UJBzmx6eL/Yoelk3HHsbDBGIHkm5E
Mp7ny7CgEden8hpY4CBNGjybWeFxaFhyHP8sK5SDN6Sgq6SUK5eb4bwJayqRRwh1
vnfVfGFgy/nz1nEEBCreU/uoqGoLnMrrvnMjR4CicX+I3wKxqRgVQO6HRJDyjDHZ
RATGj2DApv2FlTzwVHpwB60oC8EWOL2gj6eUK/WqKJP0r4lUvLJXXKSqiGC9wwC3
xk2ap3JYKQCz4CIyfoPBAH/RACiuTaeT8fA60rjPLoY+aDXjvJMWkS9UJTGkX2fB
6jalyfjL4vHokqLoZyFXUxAgtsfNYhY0ZdexZTc37DCEEtbuQQKCAQEA9cI7sp1S
JwTHJBUDvcq5hkeazZqX0drKRQKmRcSwCwfO0vOWYqmt8Mijt/KjQ2hgeTrqMduc
7YqAMifCkRzhA/9ovfg5elDw5Zkf/oapPjU54+ljcd5Z9aFdUrdBo6gtxoHtOetC
Rdb8yIWbynFFQSqOmohE5f0t4w3U7xKjMCdGzZNZJHi51lEQlARlEvymEX9amFux
j4GsGnjvmeJ9TDna2t2b8/Y/th4aBjav24EKY+z5nSAfuJYuIVIC8QIZJEi6VRrc
A9TY8qj7FUDRjxSAYslnxKwx8NkB1e/4f9QnyCu3kfA2MkgB/QYz0OUs1GzJoJLf
H9i9BLUGptsZEwKCAQEA6KsVbkj+DmsQAj16FNfVRv1x8z4WkwEXM27/WuaCLHYS
XmkVFo9n2Vgl+fzupO5psgAGG14K/CgI0wPocVpKbT2bGh4x8p8jUxKu7+FQRBF3
D66FOqnFqfFwWgfOFO5BuLyirviEnO6JO58j8iRiR36js2IA73CE4bJaWeE0RfuK
nflY63PbNNVbjXxahO52mRJ4DWEjts8rc37b/sxD1d+HThyOTc/6V1jzt6anz1np
YFjtsaBrhplLK2/gNyaNStg1xh83aZvTHU+jyXlCAzfO1/F1k3dyZqmIxaiTWdP3
p5bgk34Xrc+LquBhCxot6cV2cAYn49H5s7IZG87rEQKCAQAIIjKJmc1TP0Q7/HoQ
OPpk6E/GSDyIFH6nRAwuuPC+nLaKoscyYr0//9PzTZN7sqOmv31qwwLxlajigBBf
bx4/XJ+h0epNEwq1/phheyF0zpwo39uLtDkz+PA2wZvph7JkJH6ucQvTdecN1+Yt
EAyjuH3ZvXLSTcvL/PQ0KWC/Qj2EpkDIBTrZTfuHepHBzBzO7XEZI8e/oSIKCkCb
zjQpZqzIm5cCvv6iz2I7HGo7kIzAe+JTAfIq0MWcErPIODKO0d1g3a+0bMH1XgRZ
UrjczGfnXRUTHEPW3cfCxdtql6HtbQz5RoL0rQ9ryV3DpyIRsbwGlXXO/wRaeIdM
1GmDAoIBAQDPBKqk3j1vBsPPunONaB1UdN2W2H+tfSLvmKuMbd0VQllFt6oT0LVO
JahkrjCIf7l7r5m/cAXGJrjzSF7hvLzMRixjKMq4XfBIUi9lMM0CQ6f0RAw3DifZ
9gFJmfg7l2LSxMTbejREjdl9OzP4l3b6tithyKmcYjlZuB+8KS0ht5a2yM3dcdBx
SgWT9jl0XdkYid5XyT7Fwb+fnBiStZ0GB0WUssPLaGoOng78MUTOsel82KNlkJ8b
u/muRHTznVHKbmYqSkw7o3JMejf5Y/Lgeh+I9EbxVy5rOh2AAWZaXsfUTeK0WVUo
Saqz98Fg54JCpnejZVbI1mOfB7BfldSBAoIBADlPuvtrUX0d0rb6bAQSyAdzaW56
riTHObtIjeZdrkYJqmQyrHDqrWXw6b7XoBI8F3O8dI3TkBYZyCxNptYi3nA0FdA6
6d9iYlCLy9oG7xn2zoe6aKtO7AjJ05pf718uLayEH4T/Dugxe1QUWLWFa1z8tIde
YLmz7w0k+MnTlxP/pDYX9+hUWs2a9UcybOUaGQrPHzuaeNNJivMRxIw/AzrDyhpa
k8IUO/ltNPeSLlpcCLb/H3iEr7ybn7tJw/zxWm9+RrLeRh3CrOtXBbxI7fjPlRb3
EUcvM3o3kzWeImyD6uUTGoOtxjLReFFBMlL3bFGXyxBVabV09WL5zdY0BG0=
-----END RSA PRIVATE KEY-----
