Certificate:
    Data:
        Version: 1 (0x0)
        Serial Number: 17991423087706743681 (0xf9ae5ff9c285a381)
    Signature Algorithm: sha1WithRSAEncryption
        Issuer: O=MongoDB, OU=DevTools, CN=DevTools CA
        Validity
            Not Before: Dec 17 14:11:12 2020 GMT
            Not After : Oct  1 14:11:12 2294 GMT
        Subject: O=MongoDB, OU=DevTools Testers, CN=Wonderwoman/emailAddress=tester@example.com
        Subject Public Key Info:
            Public Key Algorithm: rsaEncryption
                Public-Key: (4096 bit)
                Modulus:
                    00:a2:33:a4:fc:0e:58:89:dd:77:fc:1c:7e:41:41:
                    b6:ae:fd:e0:ca:a0:44:26:d3:52:88:2d:21:e1:53:
                    48:54:72:15:b3:44:78:6b:4b:30:36:73:3c:8c:a1:
                    eb:b5:f3:70:6e:b1:ea:ca:58:82:17:18:de:e2:e4:
                    7c:c7:ce:6f:90:c6:e9:13:bc:50:8c:72:02:1e:40:
                    a5:14:87:0e:74:48:14:61:25:9d:65:62:11:d0:04:
                    08:2e:49:f9:36:ff:bc:24:0c:20:ba:2a:6d:8b:44:
                    30:c7:ef:9e:e8:26:e4:b0:09:6a:8f:93:c2:4b:e6:
                    fe:15:6d:67:ed:42:bf:4e:5c:22:e3:39:f8:82:2d:
                    05:cd:0f:99:1e:1d:c1:87:ad:64:0e:e7:31:a0:bc:
                    8a:4f:a0:97:36:7c:42:2a:09:6d:80:bc:10:d1:96:
                    f6:79:53:6c:d0:32:1a:1d:f0:7f:c6:2e:13:c3:59:
                    4d:7a:df:e8:07:88:44:16:26:3e:37:29:94:e4:31:
                    75:fc:ae:85:26:07:48:20:dd:e7:b2:9b:c6:7c:d2:
                    f9:6d:f9:3c:38:6a:77:ed:0a:1e:34:cf:5e:b3:6c:
                    e2:dd:b1:75:d9:2e:86:c5:78:35:69:87:ed:4f:86:
                    71:ed:aa:ca:35:7a:59:83:54:a7:f8:ee:45:0b:5b:
                    08:2a:ef:32:7d:48:a0:14:8d:09:6f:73:05:9d:00:
                    d8:31:97:be:f3:29:63:6c:ae:fb:ce:6e:86:a3:9e:
                    a0:01:fe:ff:76:e4:2f:a4:23:0c:87:6d:25:f6:b4:
                    f2:41:49:c2:f9:62:94:cf:8a:7c:5e:b4:fe:45:16:
                    44:50:76:2e:78:2b:48:32:38:e1:fb:83:00:88:de:
                    8b:2a:95:6d:4e:ef:a8:13:ad:6b:ea:08:aa:ba:1e:
                    11:bb:b5:a2:60:15:ad:17:99:a0:92:50:01:a6:85:
                    18:b3:cb:18:d8:eb:4a:0a:2b:06:ee:ff:fe:3f:0f:
                    92:ef:74:58:a3:eb:15:31:39:39:ef:f9:e4:71:3d:
                    97:08:b7:cd:1e:5c:0c:ad:cc:10:3e:34:0c:1f:a2:
                    e9:ef:8d:b0:16:e8:b9:6e:44:8c:12:85:fa:e0:44:
                    ac:da:b6:6e:37:ed:35:7d:cb:54:d0:e7:49:a1:3b:
                    31:56:2f:57:70:91:5c:b0:ae:ad:0d:12:79:b8:11:
                    e0:1a:ca:2e:76:c3:bc:1c:45:7f:8c:a1:10:22:cc:
                    07:4d:de:21:ef:a4:22:ff:33:c9:e4:1b:16:46:14:
                    95:56:a8:41:e1:1b:79:9e:22:95:d9:6f:cf:fd:03:
                    d8:e2:36:a1:d8:ce:48:33:f5:ba:4b:c8:3b:bb:97:
                    93:16:cb
                Exponent: 65537 (0x10001)
    Signature Algorithm: sha1WithRSAEncryption
         44:c2:10:e4:14:40:49:04:57:02:37:33:db:04:89:89:b2:32:
         72:3b:6a:b8:b0:1b:58:07:de:2f:38:0e:aa:09:6f:9a:c6:07:
         c2:b3:e2:bf:c0:08:09:0e:95:a6:74:1e:a7:3f:b0:a9:b2:e6:
         89:ec:74:d6:98:db:50:47:a5:db:6e:76:c0:4a:be:bc:a3:3b:
         a1:e5:10:da:45:8a:4c:f1:11:70:47:05:df:e3:31:40:97:e5:
         c4:80:d2:d4:cd:54:cf:a2:ec:a3:39:15:f6:76:7f:90:3b:57:
         5d:e2:87:85:da:5d:5e:55:ee:ef:00:a0:50:6c:5c:3f:d8:b2:
         c1:55:18:c7:90:9c:d1:09:ca:6d:5d:de:fd:7c:e6:66:60:89:
         1c:d7:89:a8:f0:78:a5:7c:b5:a2:2c:cd:60:99:26:d2:f2:ab:
         18:10:c7:99:f1:4e:a8:1d:ff:93:2a:0d:68:1b:c2:e1:6b:23:
         07:35:c3:c6:80:33:7c:91:ab:1e:29:17:35:0c:bc:1b:8f:ed:
         5a:ed:2d:42:05:8f:fe:a5:16:77:27:58:93:c8:9c:d4:3e:11:
         07:5f:16:77:7f:e1:21:c8:16:b6:f4:15:51:cb:18:1d:ed:82:
         38:c4:86:de:05:22:fc:04:e7:5a:51:d9:e9:6c:d6:bf:79:0f:
         af:20:df:05:03:d4:72:cd:09:85:87:0c:88:65:04:00:d7:c0:
         bb:11:ee:75:df:f2:c5:56:71:bf:01:22:77:b2:5d:fc:84:bc:
         d6:5a:22:1a:a0:6f:a9:02:e8:09:2f:7b:60:88:a1:23:aa:d9:
         79:37:3b:9c:2d:bd:6d:23:a3:0b:37:8d:6f:0e:e9:54:e0:ac:
         96:1b:89:89:3b:60:c2:2d:dd:f1:d2:60:c4:1c:53:85:3f:d4:
         20:1b:42:f2:98:48:08:1c:2f:75:57:f4:27:c2:f3:c4:4c:31:
         36:92:02:5c:7f:15:6d:c1:ab:ce:6f:fc:f1:34:51:57:3e:dd:
         03:bc:42:8b:d6:5a:af:cb:b0:1c:d0:bd:d8:2a:df:7f:a6:01:
         32:52:28:9d:cb:c5:74:d9:61:2d:97:05:17:e8:17:d7:fe:6e:
         8e:be:26:61:e6:6f:5d:5a:ec:83:6d:20:cd:70:92:4d:ad:c4:
         2d:d3:52:a9:73:c6:8c:1e:34:b8:1b:28:18:a3:ed:21:01:32:
         b1:ea:9d:31:31:2d:dd:5f:46:a0:08:36:3d:e8:c8:7c:18:d3:
         0a:6a:7f:ff:74:6c:ed:a2:e1:22:f6:18:14:5a:cb:53:b8:c7:
         18:24:0a:d2:7a:6f:0f:25:fe:7c:ac:88:37:31:d9:fe:9f:c2:
         cf:82:a1:a1:ea:d1:8f:30
-----BEGIN CERTIFICATE-----
MIIFHzCCAwcCCQD5rl/5woWjgTANBgkqhkiG9w0BAQUFADA7MRAwDgYDVQQKDAdN
b25nb0RCMREwDwYDVQQLDAhEZXZUb29sczEUMBIGA1UEAwwLRGV2VG9vbHMgQ0Ew
IBcNMjAxMjE3MTQxMTEyWhgPMjI5NDEwMDExNDExMTJaMGYxEDAOBgNVBAoMB01v
bmdvREIxGTAXBgNVBAsMEERldlRvb2xzIFRlc3RlcnMxFDASBgNVBAMMC1dvbmRl
cndvbWFuMSEwHwYJKoZIhvcNAQkBFhJ0ZXN0ZXJAZXhhbXBsZS5jb20wggIiMA0G
CSqGSIb3DQEBAQUAA4ICDwAwggIKAoICAQCiM6T8DliJ3Xf8HH5BQbau/eDKoEQm
01KILSHhU0hUchWzRHhrSzA2czyMoeu183BuserKWIIXGN7i5HzHzm+QxukTvFCM
cgIeQKUUhw50SBRhJZ1lYhHQBAguSfk2/7wkDCC6Km2LRDDH757oJuSwCWqPk8JL
5v4VbWftQr9OXCLjOfiCLQXND5keHcGHrWQO5zGgvIpPoJc2fEIqCW2AvBDRlvZ5
U2zQMhod8H/GLhPDWU163+gHiEQWJj43KZTkMXX8roUmB0gg3eeym8Z80vlt+Tw4
anftCh40z16zbOLdsXXZLobFeDVph+1PhnHtqso1elmDVKf47kULWwgq7zJ9SKAU
jQlvcwWdANgxl77zKWNsrvvOboajnqAB/v925C+kIwyHbSX2tPJBScL5YpTPinxe
tP5FFkRQdi54K0gyOOH7gwCI3osqlW1O76gTrWvqCKq6HhG7taJgFa0XmaCSUAGm
hRizyxjY60oKKwbu//4/D5LvdFij6xUxOTnv+eRxPZcIt80eXAytzBA+NAwfounv
jbAW6LluRIwShfrgRKzatm437TV9y1TQ50mhOzFWL1dwkVywrq0NEnm4EeAayi52
w7wcRX+MoRAizAdN3iHvpCL/M8nkGxZGFJVWqEHhG3meIpXZb8/9A9jiNqHYzkgz
9bpLyDu7l5MWywIDAQABMA0GCSqGSIb3DQEBBQUAA4ICAQBEwhDkFEBJBFcCNzPb
BImJsjJyO2q4sBtYB94vOA6qCW+axgfCs+K/wAgJDpWmdB6nP7CpsuaJ7HTWmNtQ
R6XbbnbASr68ozuh5RDaRYpM8RFwRwXf4zFAl+XEgNLUzVTPouyjORX2dn+QO1dd
4oeF2l1eVe7vAKBQbFw/2LLBVRjHkJzRCcptXd79fOZmYIkc14mo8HilfLWiLM1g
mSbS8qsYEMeZ8U6oHf+TKg1oG8LhayMHNcPGgDN8kaseKRc1DLwbj+1a7S1CBY/+
pRZ3J1iTyJzUPhEHXxZ3f+EhyBa29BVRyxgd7YI4xIbeBSL8BOdaUdnpbNa/eQ+v
IN8FA9RyzQmFhwyIZQQA18C7Ee513/LFVnG/ASJ3sl38hLzWWiIaoG+pAugJL3tg
iKEjqtl5NzucLb1tI6MLN41vDulU4KyWG4mJO2DCLd3x0mDEHFOFP9QgG0LymEgI
HC91V/QnwvPETDE2kgJcfxVtwavOb/zxNFFXPt0DvEKL1lqvy7Ac0L3YKt9/pgEy
Uiidy8V02WEtlwUX6BfX/m6OviZh5m9dWuyDbSDNcJJNrcQt01Kpc8aMHjS4GygY
o+0hATKx6p0xMS3dX0agCDY96Mh8GNMKan//dGztouEi9hgUWstTuMcYJArSem8P
Jf58rIg3Mdn+n8LPgqGh6tGPMA==
-----END CERTIFICATE-----
-----BEGIN RSA PRIVATE KEY-----
MIIJKAIBAAKCAgEAojOk/A5Yid13/Bx+QUG2rv3gyqBEJtNSiC0h4VNIVHIVs0R4
a0swNnM8jKHrtfNwbrHqyliCFxje4uR8x85vkMbpE7xQjHICHkClFIcOdEgUYSWd
ZWIR0AQILkn5Nv+8JAwguipti0Qwx++e6CbksAlqj5PCS+b+FW1n7UK/Tlwi4zn4
gi0FzQ+ZHh3Bh61kDucxoLyKT6CXNnxCKgltgLwQ0Zb2eVNs0DIaHfB/xi4Tw1lN
et/oB4hEFiY+NymU5DF1/K6FJgdIIN3nspvGfNL5bfk8OGp37QoeNM9es2zi3bF1
2S6GxXg1aYftT4Zx7arKNXpZg1Sn+O5FC1sIKu8yfUigFI0Jb3MFnQDYMZe+8ylj
bK77zm6Go56gAf7/duQvpCMMh20l9rTyQUnC+WKUz4p8XrT+RRZEUHYueCtIMjjh
+4MAiN6LKpVtTu+oE61r6giquh4Ru7WiYBWtF5mgklABpoUYs8sY2OtKCisG7v/+
Pw+S73RYo+sVMTk57/nkcT2XCLfNHlwMrcwQPjQMH6Lp742wFui5bkSMEoX64ESs
2rZuN+01fctU0OdJoTsxVi9XcJFcsK6tDRJ5uBHgGsoudsO8HEV/jKEQIswHTd4h
76Qi/zPJ5BsWRhSVVqhB4Rt5niKV2W/P/QPY4jah2M5IM/W6S8g7u5eTFssCAwEA
AQKCAgBUR6txgO7Ga/o9WHzN4ZxP3wDfqFjhJ6rZsUHKd+C8aC8YX/qGHaJmmIgc
tsHoYB7Klc3e6BBoefbORFUF6SEVRBW1uILOBytMluBwAyEikJVuSQI4vLVutbme
e7dvuYAD5v1WXldfJsaGDN8v1426XpotEmTB1buuXJPEt4r552wFT4jt8wDxpSo1
eNanbhPwnnauA2mGqHYJzJUAjLeGTbIbhWp6bju7Dl19swpham3AcnWM5C0HROnD
7IklVojT7VNWQURUFzKGSWdr6f8/usv6Nafx1HiOBVTeseWOK4TSFrSabc9/ac+v
Dv7i9IPcL4M0OGeskt9YvE3J8boS6UVFpQqwDnAL+qhZQHnWcFzGFA2BhrLv4NpM
fNtQoU+E6fkuqjHQ+Wut6kH/jQmmxmX/lqG7mNOPIUq++2ORJFdOciq98eM14dPL
Jq4u7tCgfZB5d3TsEN44v7/mxJPD983DtNbsYcsVh5HKf+/7/Pqbfu/qw8wZA2BX
aScweZCMsUlrYyIxdIEPEV2syAZI82txHps1ut2j81V9RENzw2Q5Njxek7EWNgXa
Cgd7Bibk7s0/anShcHOUGmZWnxcDVraZtVpDliv+/S54v3lWX+yOFyfssUdnrWnp
5wmA3+mga3Tou842lSmLbcLEZ8OigWmCGWrddi9654SU2UxpGQKCAQEAy9ylOuIh
xMhL6fTREslZTF1MPUUlGzRtg9zWrSw1Jh+xz47r2GqD2ke9orgX40vv8XkgphuV
XKtsaBMI/fkI0xnqm8I/kZQgKbQJocH6h5N7dWP/iCrWGEaTNih3o2bx8dHDTJ9O
2Gb//57j5SapS9cWqpV85bLwq+syTJ25CVgTdAAi0R52A716pO8HklC8C10PxLb2
DNtYeWu5t3VNy2CqYUB5+WFuxBekKN6VEri/xpbVAU5+jiJhS9wM4zDu0kclwL3W
PvmDyWfdfeWYQmHPsjHXNzTRNQGduFn/We0O2okOPOE2YfP/hILCLpYKzMFih2BK
0frOEaYktwxHjwKCAQEAy69nIrTSNvOiwnIZSc2hKmwbGDSFJUfA/o3Dt8FqrSpE
vB0gGbvy4AhCZMO8qBPwp9axgtN5hoTHfRSRKhxd8RJ+9oXgTxXSa4ALPqQElW40
BYjrXfPuDYUFYCFLBbT9ytt6ybf9aWoxDLpBZAfRsKuipUvwF1/+L3o14TRJYjxP
90fEkzxBEi3CNDCKSNnCqbbtz/z64sx/lFzJ7QB0rJbpyIc3qzpfsa67C8fj91+b
7TdOmHKR2moBdS+zcN0o3EoKcKpkuDbgy8yVOWr75R9NSzQvLhbZyI2BuxC3Npcb
ie61h7TL8/ZLBUJAs0u9iY5nDeB/yUuqUNI5bO6/BQKCAQARFWhzSsfxqadS78Ul
geIN2DOvXsABS59x0WvcDzxU+Yr5Dc0N0b9C54govqyhy5dL8Q6fXOhjX6ox/oZe
YiQvLJjQfLK/DF61n/S+rXbFLcLGz552VsCiQCfN/g4oj1PvI9jt7tu4nskNLs+C
QH8nb9riaKySwzAP+CG68eyzr8HRksFYLOlO3u4MLEvCIyne+el8Xqi34xnC8xgZ
G6dtR6h/hduy3ktd+20yT5TGgNzxU2p+NYm9d3wX01TxJQSecn/jawUtOdOlaSLS
jg74YSH6mNqkMbTmcEA7Vq9jZc482gdraqQYCU58WEjVhpVZG0uadKNQfWgPapDh
FhJZAoIBAQDLjfx9M8YNgsg6mLprBmQ1OBqPwxT438+g1V4uCs6oReCxOk41SZ58
g+SOPQsR0fOkWCvIOb1uUM3oU6CLPBQp8rkNd1dm0cEbC7ixHksyZxL4IRBPMZLK
0hBANKV8C5fCnjsE0qofKi/gr1bgN+w4Kh7+IHjNc3JcUj78VDuuP+YOkxuBpSrG
lxJJA+V+zpj68MSTIhg8hfBN/bkS8GypepwiefeJWGn/8UYejOJm+paip64VLhJS
+7N/QG+MsIjANgJe+/pyGu3m3gqXejJIlVKygHFSFyYIhlqK7zaaCMNNwlCKUYWt
xorMs5xjUqMVkEmvFZe/PK313VHkamhdAoIBABsqL+qG9ZZjmxEqa5sX5XZgZkFn
CUBdj8hLgXKR+7HV2vXA0s6K53oSqdrOee0Hf2G/C/6p6UNSQFw7LN1+FTYqkQNd
AAMYq+R2Mvx6NzPTVFmsXpWnQHc1fvOy+VIKYyfsn5cY3rnxeA2bMYVLg4Br5Vz0
TmGGEO8u//dP95QtgM0ciIEF2hL+I1Z+LWrfUqSCTj1q/WHyWBCHI9AB6XukWVwH
dTtwrLiYaIAwKJSEzrHuovdLTNWa20L641P3X58Gu1F5BRPMA8Pk9dDn4a5WLRyB
JrDjyUi6aml137KH7gRfjwqce0nULQc2SenDSgbNPq9S0O9AOi0kHRlzXkg=
-----END RSA PRIVATE KEY-----
