Certificate:
    Data:
        Version: 1 (0x0)
        Serial Number: 17530703619976182541 (0xf349920f8b55bb0d)
    Signature Algorithm: sha1WithRSAEncryption
        Issuer: O=MongoDB, OU=DevTools, CN=DevTools CA
        Validity
            Not Before: Dec 22 09:37:55 2020 GMT
            Not After : Oct  6 09:37:55 2294 GMT
        Subject: O=MongoDB, OU=DevTools, CN=localhost
        Subject Public Key Info:
            Public Key Algorithm: rsaEncryption
                Public-Key: (4096 bit)
                Modulus:
                    00:b3:57:d2:f7:31:46:0b:76:ba:03:a6:65:53:cc:
                    6e:8f:8f:48:82:e1:70:d9:31:7e:23:18:62:3d:f3:
                    e3:7c:12:8a:9a:10:42:6a:40:d2:48:f2:2e:2f:a1:
                    f3:92:35:4b:eb:e4:c1:56:36:10:77:0e:13:eb:3d:
                    cc:95:e1:27:2d:7a:45:ef:0a:f1:19:d5:ac:6c:d0:
                    9b:61:d0:5f:00:0a:25:ce:20:ca:82:a7:1d:20:40:
                    d8:3b:3a:5d:dd:7b:f1:b2:46:92:16:7e:ee:97:e0:
                    8f:6c:de:05:79:29:0b:9d:92:df:a9:81:e4:53:78:
                    1f:26:44:8e:d2:a5:66:33:74:04:d7:16:f4:9f:9e:
                    e8:b4:d8:62:1b:2b:95:14:2d:46:35:f8:b8:b1:cb:
                    52:21:df:49:29:04:82:2f:8d:66:e1:19:eb:11:6a:
                    9b:cf:a4:21:f0:54:b3:16:39:a7:34:75:5c:f6:62:
                    50:39:71:06:5b:3e:e1:ff:dc:25:7c:fc:05:3a:84:
                    8b:71:05:1f:5f:15:78:37:e0:dc:1f:70:c3:87:ab:
                    70:22:18:98:81:8e:c3:2c:99:96:ac:0f:28:ea:fd:
                    c6:cd:b4:5f:83:47:77:69:0e:42:34:8d:0a:7c:a9:
                    71:c9:0a:0c:f4:cb:03:c2:64:dc:92:32:82:89:bb:
                    73:4f:e2:f3:de:e2:c9:1b:85:71:3c:88:72:48:38:
                    54:49:b6:6d:31:d7:71:a7:f3:75:bd:70:1b:4f:3b:
                    93:d4:34:05:7f:1a:2d:f1:be:d5:ee:87:b1:a0:5f:
                    2a:52:d8:6e:b9:8a:1c:b2:3d:80:a8:74:9b:06:ff:
                    c3:d8:9c:f4:50:0f:f3:aa:ba:c2:80:43:44:aa:b6:
                    d7:ae:7f:bf:5f:a4:74:89:87:07:80:ac:8d:a9:94:
                    1c:ed:49:0d:5c:0e:75:da:42:71:2f:e4:f9:47:93:
                    ff:5a:b7:bd:55:6b:cd:d3:de:b6:b2:4e:04:08:23:
                    31:70:56:fc:79:e2:71:46:d1:0c:9d:72:6a:f4:b1:
                    a4:9a:1f:99:17:8b:15:2a:ac:3d:18:1f:1e:06:24:
                    aa:a4:af:3a:e7:57:4a:a4:f4:67:f8:9b:68:00:3c:
                    82:fa:48:89:01:92:a6:e6:62:28:7f:cf:b6:e7:0d:
                    c6:91:e3:9e:dd:08:4a:66:1f:ed:41:7b:65:ee:05:
                    30:34:0a:45:96:58:92:06:6b:0c:61:f9:63:ba:c5:
                    18:b6:91:4e:bc:70:6c:a2:85:a9:e1:08:1c:ac:df:
                    9b:03:83:10:e5:4a:dc:72:e6:4a:fd:91:8f:de:4e:
                    d3:5e:8c:65:2e:96:de:06:e5:2a:a9:dc:53:7a:4f:
                    90:c7:d1
                Exponent: 65537 (0x10001)
    Signature Algorithm: sha1WithRSAEncryption
         32:9b:c4:a0:c6:1b:62:d5:92:7b:e7:44:01:79:b2:ee:1e:06:
         10:00:b8:00:7c:61:9e:d3:58:f4:e1:60:13:2b:66:a1:c4:37:
         55:97:15:12:74:30:e6:27:b6:69:69:d9:8c:bc:5c:27:89:bb:
         fb:36:65:41:19:5b:cc:50:9e:31:4d:27:d0:3b:e6:bf:a1:fd:
         4a:a5:7e:1f:49:69:79:08:51:0e:2c:77:42:d0:73:9a:c3:f8:
         eb:dc:d6:21:58:d6:dc:cb:4e:ac:9a:ab:93:fe:5a:2c:6a:f1:
         ab:73:3d:84:9a:fe:0a:13:b9:aa:3c:47:3c:26:a7:23:f2:8d:
         d0:a0:28:77:50:0d:0d:8e:03:be:61:1e:ce:0f:4a:60:16:40:
         21:45:c6:61:e1:07:6c:6c:ef:7f:ca:2a:28:d8:75:4c:f5:06:
         0d:17:1c:33:0c:68:49:49:da:b3:2c:c3:b5:b8:74:2b:75:e8:
         fa:34:0b:56:45:71:43:71:4f:35:d2:74:3b:35:6f:a8:b6:da:
         25:c5:d2:82:f5:7d:55:66:03:ca:bd:34:42:d1:ec:60:7e:54:
         36:e7:7a:90:2a:1c:b9:6c:dc:74:7e:bd:63:0a:2c:4b:4f:f5:
         c5:8f:d4:ad:41:dc:1d:50:d0:86:8f:fd:6d:4e:a7:85:f0:00:
         33:83:c6:5b:9d:f3:81:fe:92:11:62:52:f1:f9:0b:90:2f:04:
         10:8a:5a:38:a2:3b:8b:41:c3:36:98:10:88:d7:71:18:cd:17:
         61:17:28:5f:d4:90:59:9c:98:29:78:2b:cf:01:c4:8d:7d:dc:
         f0:31:fe:d1:be:66:35:7c:12:d5:69:80:7c:76:5b:01:52:f0:
         76:5f:96:cb:0b:18:03:13:44:4e:ee:ca:e5:07:a2:ac:92:9e:
         ba:6f:91:b9:73:f0:d7:ae:b4:13:c6:ea:b6:6f:58:34:6b:ad:
         22:2e:17:25:c7:63:c3:e8:8c:36:22:81:4d:f9:31:1e:84:ec:
         19:31:f7:77:bc:38:86:b4:3b:88:33:bc:00:e6:dc:af:08:40:
         0a:41:92:5c:06:6c:ad:64:e3:02:d2:71:cf:3f:9d:1b:d7:5d:
         e6:f6:ab:e7:00:21:74:f2:e0:1a:4d:ac:a2:c8:18:4c:26:0d:
         e1:ab:06:25:bd:a9:48:f4:3f:de:de:b6:61:ba:5a:6d:68:cc:
         7d:8a:23:22:e1:c6:f0:cd:b7:bc:3d:49:9d:16:db:ac:42:5e:
         4e:03:15:d2:60:fd:14:0e:de:88:e4:76:bf:09:d3:8e:eb:0a:
         c0:6d:a4:04:6c:d9:4e:cc:e1:cc:d8:97:9e:52:8c:a9:b3:48:
         57:fd:77:d6:31:0b:43:bf
-----BEGIN CERTIFICATE-----
MIIE8jCCAtoCCQDzSZIPi1W7DTANBgkqhkiG9w0BAQUFADA7MRAwDgYDVQQKDAdN
b25nb0RCMREwDwYDVQQLDAhEZXZUb29sczEUMBIGA1UEAwwLRGV2VG9vbHMgQ0Ew
IBcNMjAxMjIyMDkzNzU1WhgPMjI5NDEwMDYwOTM3NTVaMDkxEDAOBgNVBAoMB01v
bmdvREIxETAPBgNVBAsMCERldlRvb2xzMRIwEAYDVQQDDAlsb2NhbGhvc3QwggIi
MA0GCSqGSIb3DQEBAQUAA4ICDwAwggIKAoICAQCzV9L3MUYLdroDpmVTzG6Pj0iC
4XDZMX4jGGI98+N8EoqaEEJqQNJI8i4vofOSNUvr5MFWNhB3DhPrPcyV4SctekXv
CvEZ1axs0Jth0F8ACiXOIMqCpx0gQNg7Ol3de/GyRpIWfu6X4I9s3gV5KQudkt+p
geRTeB8mRI7SpWYzdATXFvSfnui02GIbK5UULUY1+Lixy1Ih30kpBIIvjWbhGesR
apvPpCHwVLMWOac0dVz2YlA5cQZbPuH/3CV8/AU6hItxBR9fFXg34NwfcMOHq3Ai
GJiBjsMsmZasDyjq/cbNtF+DR3dpDkI0jQp8qXHJCgz0ywPCZNySMoKJu3NP4vPe
4skbhXE8iHJIOFRJtm0x13Gn83W9cBtPO5PUNAV/Gi3xvtXuh7GgXypS2G65ihyy
PYCodJsG/8PYnPRQD/OqusKAQ0Sqtteuf79fpHSJhweArI2plBztSQ1cDnXaQnEv
5PlHk/9at71Va83T3rayTgQIIzFwVvx54nFG0Qydcmr0saSaH5kXixUqrD0YHx4G
JKqkrzrnV0qk9Gf4m2gAPIL6SIkBkqbmYih/z7bnDcaR457dCEpmH+1Be2XuBTA0
CkWWWJIGawxh+WO6xRi2kU68cGyihanhCBys35sDgxDlStxy5kr9kY/eTtNejGUu
lt4G5Sqp3FN6T5DH0QIDAQABMA0GCSqGSIb3DQEBBQUAA4ICAQAym8Sgxhti1ZJ7
50QBebLuHgYQALgAfGGe01j04WATK2ahxDdVlxUSdDDmJ7ZpadmMvFwnibv7NmVB
GVvMUJ4xTSfQO+a/of1KpX4fSWl5CFEOLHdC0HOaw/jr3NYhWNbcy06smquT/los
avGrcz2Emv4KE7mqPEc8Jqcj8o3QoCh3UA0NjgO+YR7OD0pgFkAhRcZh4QdsbO9/
yioo2HVM9QYNFxwzDGhJSdqzLMO1uHQrdej6NAtWRXFDcU810nQ7NW+ottolxdKC
9X1VZgPKvTRC0exgflQ253qQKhy5bNx0fr1jCixLT/XFj9StQdwdUNCGj/1tTqeF
8AAzg8ZbnfOB/pIRYlLx+QuQLwQQilo4ojuLQcM2mBCI13EYzRdhFyhf1JBZnJgp
eCvPAcSNfdzwMf7RvmY1fBLVaYB8dlsBUvB2X5bLCxgDE0RO7srlB6Kskp66b5G5
c/DXrrQTxuq2b1g0a60iLhclx2PD6Iw2IoFN+TEehOwZMfd3vDiGtDuIM7wA5tyv
CEAKQZJcBmytZOMC0nHPP50b113m9qvnACF08uAaTayiyBhMJg3hqwYlvalI9D/e
3rZhulptaMx9iiMi4cbwzbe8PUmdFtusQl5OAxXSYP0UDt6I5Ha/CdOO6wrAbaQE
bNlOzOHM2JeeUoyps0hX/XfWMQtDvw==
-----END CERTIFICATE-----
-----BEGIN RSA PRIVATE KEY-----
MIIJJwIBAAKCAgEAs1fS9zFGC3a6A6ZlU8xuj49IguFw2TF+IxhiPfPjfBKKmhBC
akDSSPIuL6HzkjVL6+TBVjYQdw4T6z3MleEnLXpF7wrxGdWsbNCbYdBfAAolziDK
gqcdIEDYOzpd3XvxskaSFn7ul+CPbN4FeSkLnZLfqYHkU3gfJkSO0qVmM3QE1xb0
n57otNhiGyuVFC1GNfi4sctSId9JKQSCL41m4RnrEWqbz6Qh8FSzFjmnNHVc9mJQ
OXEGWz7h/9wlfPwFOoSLcQUfXxV4N+DcH3DDh6twIhiYgY7DLJmWrA8o6v3GzbRf
g0d3aQ5CNI0KfKlxyQoM9MsDwmTckjKCibtzT+Lz3uLJG4VxPIhySDhUSbZtMddx
p/N1vXAbTzuT1DQFfxot8b7V7oexoF8qUthuuYocsj2AqHSbBv/D2Jz0UA/zqrrC
gENEqrbXrn+/X6R0iYcHgKyNqZQc7UkNXA512kJxL+T5R5P/Wre9VWvN0962sk4E
CCMxcFb8eeJxRtEMnXJq9LGkmh+ZF4sVKqw9GB8eBiSqpK8651dKpPRn+JtoADyC
+kiJAZKm5mIof8+25w3GkeOe3QhKZh/tQXtl7gUwNApFlliSBmsMYfljusUYtpFO
vHBsooWp4QgcrN+bA4MQ5UrccuZK/ZGP3k7TXoxlLpbeBuUqqdxTek+Qx9ECAwEA
AQKCAgAnYC/0j//2AmJC7OSwamEX6ficq8ywExrDr9XaDlMy6Ys+2jUKySKiW3Hi
iWdGAaeiqj38pLAmw5OCAbaKbb3BUWhLXJak+nH6Di8fYbWJ97BnOnHcD77oVvRi
xKTZPR5K6w2mHMZb2DUFTRXcjTN8rEOpHti3rtb/+ut0ulXfFCj/5I1fAm/LTPr1
RjNcE7innu1GNALbZv/UHqZKtHwTDjK7RzHgfAPrlV0gkxXwAZigi+NbSUKBBCRw
nbApadfoCjPnY52IrdkQQ7FwwbxcbDqZcdcCEwstHqejLUzpk0Bz55dU5nsEONo2
WYUk67sMzcUcdfpkUurOuoJIpTxivrShR7b96YXFo3oDSKL0YxxPrBQhzDieEa4d
BM1j9VyOXJxOANo/T9dM2nDx9/sEPKapZ/91OHk2qackDxtY3U4IHSo0Gcgz96jX
DAjLjRawhJPww/OyNslDs5Cqeeh0j5wohYtoNFqXASV+cfFlD8DAAYRuW5Q6cSIu
7OD1GAiNokSlDqyQtvLa4wj9hLVwjHdwF2Iz0rTcr0nTwbZ3n7sQuIrsusSgnu6g
J5Zw84CHBPpY3NNBoOEEMf/L41ge1YESmB3Z5y+2AAE0xayBwmlI42rj8E19nCKD
6VAJG3IhrXkAKkI1za+cKkJud4b+PieTm65FTCcDmAu+xVfCRQKCAQEA2C27QxkH
9i1SYypqk4yrf1eZKqyFwwqZZya+2BLrXoha5rjq8GD+2AFII7+fNDNx/FbxSIqm
bdvYX+TUFx8Ymz3HB9VzT9MutpEcOU7SBkLm6Bxh8oIeHFQJhYwfZb1KyFai6/oQ
sT7Fw3xkMLldn9WzsqpNuntnE8+Q11J+qa40My5qcrTg2DbQ11ripJE1QTVybzRJ
3MJPIb8t3r5G8S9mgQ/6ijnm8n+v9aZlE/Y8Yb60eojKv5Ycrln9RI12sSeQsUjC
q9h2xhYsaDfHnWH90DPn97D0lQi2b1YJPhfzc6UAV7YKTVIWvva9U+4aIidAQAMy
DXJ1jOkXR4CwKwKCAQEA1GEMgbRaXDEfw674lgbG5yKkLdB4BrVKPtwkTsBks60T
hwwC0YMvKhCVZ0avSLH6yjq2kqFn9E6mOG+GN6sNNSTPqY/j6BG3yFNDCN3VzLI8
/eFvd0QQpUA+SglgMi2jGYT1YK+xAoySQSgqi/rp1WEh3VS2lW2bbgqgFHZ52qif
9WpGnXyJFzZn1OAK53hE0+j1Xmv2AAXHp/O0OVSgopOKvbcLz7hsB2jur23CYepc
QaZMw3tnKgnKd2Sns3lVH0QmAQl1WB2wB5x5OtNAjI3wRMhcUrSQgH0DdXYE3rXE
FJGi4sZ59rm1mKQcaI2qqMyxc9/rjgEeLTt5aVYt8wKCAQAvvYGyYq/AbOfZ4H8i
0Jj7CVRY+TqdBRU1k3fn7d2uxbwVYdb4eOMuvrG4u1OkSowspuKoG35/mmJhYv53
kLV1ayIuF7Rcd43EYa1y9nYpTdMChWoYDSYrKV/k7znr1O7T6VYXeOUAz5ULA8h4
ficv6hjCJxv9R81OsbMR6jTwsfjzKJf3dvyEoy5hsL+Gik7RdMUty8VYDE0/baHq
o+i00Lv5WpcAuaLIAOzR+goua12QVHY07UqhHrx8wIDPB9KjctJgZGohWy93tWPf
LBpYJlDQDvZ2W8zXsNHhKoXmAZIRAupddGU4CB3f1EuhYl7BFhv5Rvthvto44Szz
7HZ7AoIBAGXk5g44zH2c6AOHqCa6u6VbXm/IrD1zr1p3XkgWUHpQGKVbYuLIUNGa
wUOaizCSi6OJBd1V6T0ymtdK0pdUzvJnZeaRbaQDFCzdnbTcUd5yyYZ5KXSMSHww
VXJKC0gn0y/ENcIcqQ1zChyOu9MLIDNK9edt5GfO/ZqPKHyI1y/MZWpmgdi/Tjq/
1JMypqilcEhHZanWnGEoZME00IwNCUDXDuK0tssDTXlEo/ew7mjx+y9YLU5An59w
sR4VQcx+8xMcLCulMRKEs9cDALrzbe3Bj7xAcOMRVJ8A2674X5/Gj3va385zsUJp
mTHR0vtqtK1l/+F7VlV8PdEvzrF2MncCggEAEYMiXzTs+TRtTRLBH+vsaa6hu5KE
jMST+4q7opl/joscp+LYlS4y2oUp+LBQX2RnujR1Rfp/TFd/mCwOx5v4n4bzFqUu
jQaxbx8afiP1lIhxT1+TmoXT1X+y3FssALULzZzHY5zwx/r3zLOk6FgbnmRshF4S
VWbFOIooO53ZIW0QhyhLrRft8aGzGv7j2Sz5oesclC/8N/HRyDCaN7Wr3ES0xbSE
cg7cMGwxUownhLq5xubwyve6mO0Hg1fEqt/VhkHzuFjSUCMz0GZcEfWC9iEBU97Z
cIe6NXM3rtfuevnfJtRZrsAJeJtPLDJtsxh2VkrmH/A/nYpJmKMY+nh2TA==
-----END RSA PRIVATE KEY-----
