Certificate:
    Data:
        Version: 1 (0x0)
        Serial Number: 17991423087706743679 (0xf9ae5ff9c285a37f)
    Signature Algorithm: sha1WithRSAEncryption
        Issuer: O=MongoDB, OU=DevTools, CN=DevTools CA
        Validity
            Not Before: Dec 17 09:09:59 2020 GMT
            Not After : Oct  1 09:09:59 2294 GMT
        Subject: O=MongoDB, OU=DevTools, CN=localhost
        Subject Public Key Info:
            Public Key Algorithm: rsaEncryption
                Public-Key: (4096 bit)
                Modulus:
                    00:cd:21:93:72:8a:89:c5:a1:f1:49:ef:b9:45:2c:
                    49:cf:6b:31:61:d5:19:c8:37:30:26:6e:46:a5:dd:
                    3c:93:5b:ef:48:9e:9a:45:44:f4:e8:ba:37:bc:6d:
                    21:eb:26:c8:a7:5d:70:29:f5:4a:51:18:86:d6:a3:
                    ce:3a:ef:ba:60:6d:0a:62:dc:84:49:a5:32:10:5b:
                    ec:79:6e:52:86:16:97:b9:13:9b:1f:ca:ab:c3:26:
                    c5:b5:3f:20:eb:d2:43:3d:1d:36:f0:b3:41:6c:92:
                    f1:d3:7f:ee:2e:bc:bf:29:a1:5d:02:81:de:5b:e8:
                    49:3a:1b:9f:39:c4:ac:1e:82:ea:ed:a4:81:cb:b6:
                    7a:de:a8:8e:57:06:d8:5e:3d:f0:92:60:1e:1f:53:
                    a2:09:ae:b7:c6:ec:3f:c0:43:a8:68:83:22:e8:5b:
                    a1:95:52:25:9e:5d:d6:72:c5:00:1c:eb:4d:0c:05:
                    22:19:35:28:c5:79:65:c2:34:9a:f8:10:6e:35:b0:
                    4d:00:fc:f6:47:33:a7:60:f8:a7:0c:9b:89:18:62:
                    b7:41:79:42:4a:f3:77:fe:5d:38:49:f4:f9:b6:b3:
                    78:55:8e:4d:11:c3:8b:50:b2:48:86:18:62:63:18:
                    57:8c:84:26:32:c4:07:b4:66:b8:85:02:46:60:3f:
                    dd:a4:ec:da:46:1b:54:f2:34:e4:7a:44:cd:4a:38:
                    1d:0e:5c:10:13:aa:93:5f:28:b9:7b:c6:0e:05:8b:
                    d4:f2:67:38:e1:73:67:a5:36:d5:b1:7b:39:22:d3:
                    3d:ca:f4:3e:9c:46:f6:83:65:9c:75:29:76:1c:ac:
                    7a:b9:f2:75:4b:e6:8a:84:b9:07:99:db:8d:26:be:
                    02:c8:ab:70:b7:1d:9f:74:ab:fd:6e:b2:2f:57:e1:
                    2b:74:f8:1f:16:f2:bc:97:33:a0:2d:bd:94:eb:d6:
                    70:50:ac:88:e6:a7:63:8e:f0:70:e2:00:1e:e5:76:
                    ac:db:e8:ec:a7:23:62:7c:23:25:69:a6:59:7d:a3:
                    a2:c4:21:5e:d4:ff:99:0a:4c:70:54:fa:a6:20:d9:
                    9e:1d:d8:ed:dd:48:e9:31:96:de:c4:22:84:e9:e5:
                    aa:1c:37:40:26:2a:02:c0:e1:b3:69:b6:0e:ee:2c:
                    9d:5c:10:38:01:56:92:24:7f:88:f5:3e:d2:00:c1:
                    da:5f:85:e8:90:2e:56:77:13:29:7a:25:67:dc:33:
                    c0:d8:eb:a6:0f:96:55:83:64:78:85:cd:5c:78:0d:
                    5e:60:22:ab:08:c8:88:d3:28:c0:9f:e8:3b:a0:23:
                    92:75:91:bb:94:21:d7:e3:0a:79:82:58:b6:40:2e:
                    d4:cf:cb
                Exponent: 65537 (0x10001)
    Signature Algorithm: sha1WithRSAEncryption
         39:05:5b:1b:de:3f:68:c5:9c:06:ea:f0:fc:06:8d:0a:51:d5:
         79:41:5d:3f:fc:70:6a:78:08:d0:2c:8c:1c:c2:d9:be:01:e9:
         30:9d:e9:53:f9:23:9b:ca:ac:b9:60:e3:14:b5:6a:68:d7:53:
         4c:54:95:92:a0:2a:56:e6:8b:ab:59:f6:73:9a:72:29:ce:a3:
         09:dc:56:3d:5d:ac:6a:e7:ce:ca:36:d1:68:f4:72:70:98:c3:
         d7:86:e9:ab:60:1f:e9:81:99:b7:b4:0a:9d:9c:82:e7:e9:e4:
         73:40:91:f5:7a:13:a5:ea:fd:be:46:9e:a8:26:6f:d1:59:a5:
         2a:45:57:87:42:36:63:02:65:15:e4:86:21:c8:5e:79:bd:db:
         fb:9e:b8:f0:82:21:29:52:c4:c0:d9:fc:04:1d:c5:4b:c7:21:
         99:a6:75:b6:44:a8:76:af:f5:9e:dc:b9:17:48:8b:e5:10:23:
         00:21:bb:24:f2:db:55:31:3e:16:2f:a3:ce:6b:33:4b:86:0d:
         ee:94:5f:20:0d:5a:73:9a:2b:a1:50:0c:67:14:b8:5c:db:d9:
         98:72:0f:f4:9c:07:30:43:9b:9a:fa:59:df:6d:61:01:29:a4:
         3f:56:e9:ac:8d:e4:cd:df:5d:49:36:00:9e:60:d6:e9:ad:fa:
         aa:0d:3d:d9:00:7b:eb:a8:d0:9b:60:7a:72:49:d6:02:72:4a:
         d5:62:be:e1:20:3e:a6:ca:9e:46:a7:6c:cc:45:da:65:65:75:
         b7:d1:07:65:81:bf:74:24:c3:f7:49:0e:20:af:03:6a:d4:0e:
         63:10:95:32:b9:9f:02:06:75:8d:08:61:d7:5d:f0:bd:67:b5:
         e8:82:a0:68:08:e4:f2:18:fe:06:73:af:00:60:3a:60:fb:e0:
         fe:c4:2b:65:f9:43:7e:8c:4f:dd:bb:50:cb:3f:14:43:8e:be:
         1e:d3:5a:fe:de:6f:ed:45:77:93:77:77:e4:e7:dd:c3:e8:ee:
         0f:8e:1d:dc:5f:56:5d:a2:b7:f5:94:4e:7c:d8:47:48:28:64:
         23:a4:bb:08:cf:d2:d0:56:e6:5c:7a:0d:4c:39:7a:e4:da:f0:
         9f:c3:d6:da:3d:d9:c3:92:b7:3c:38:90:c6:3f:6c:a2:99:44:
         19:14:b1:aa:e6:b5:68:82:5e:aa:59:34:83:d2:b6:60:8f:99:
         a7:05:6a:6f:75:e5:f7:0b:88:f4:72:a3:72:58:9d:d0:e5:22:
         28:36:34:33:d8:85:18:58:4c:a3:6f:18:40:e0:3b:a5:97:8e:
         32:11:ac:cf:34:8c:65:2e:57:1b:69:a2:25:6c:9b:c0:7e:a2:
         71:bd:7f:06:89:69:f1:97
-----BEGIN CERTIFICATE-----
MIIE8jCCAtoCCQD5rl/5woWjfzANBgkqhkiG9w0BAQUFADA7MRAwDgYDVQQKDAdN
b25nb0RCMREwDwYDVQQLDAhEZXZUb29sczEUMBIGA1UEAwwLRGV2VG9vbHMgQ0Ew
IBcNMjAxMjE3MDkwOTU5WhgPMjI5NDEwMDEwOTA5NTlaMDkxEDAOBgNVBAoMB01v
bmdvREIxETAPBgNVBAsMCERldlRvb2xzMRIwEAYDVQQDDAlsb2NhbGhvc3QwggIi
MA0GCSqGSIb3DQEBAQUAA4ICDwAwggIKAoICAQDNIZNyionFofFJ77lFLEnPazFh
1RnINzAmbkal3TyTW+9InppFRPTouje8bSHrJsinXXAp9UpRGIbWo84677pgbQpi
3IRJpTIQW+x5blKGFpe5E5sfyqvDJsW1PyDr0kM9HTbws0FskvHTf+4uvL8poV0C
gd5b6Ek6G585xKwegurtpIHLtnreqI5XBthePfCSYB4fU6IJrrfG7D/AQ6hogyLo
W6GVUiWeXdZyxQAc600MBSIZNSjFeWXCNJr4EG41sE0A/PZHM6dg+KcMm4kYYrdB
eUJK83f+XThJ9Pm2s3hVjk0Rw4tQskiGGGJjGFeMhCYyxAe0ZriFAkZgP92k7NpG
G1TyNOR6RM1KOB0OXBATqpNfKLl7xg4Fi9TyZzjhc2elNtWxezki0z3K9D6cRvaD
ZZx1KXYcrHq58nVL5oqEuQeZ240mvgLIq3C3HZ90q/1usi9X4St0+B8W8ryXM6At
vZTr1nBQrIjmp2OO8HDiAB7ldqzb6OynI2J8IyVppll9o6LEIV7U/5kKTHBU+qYg
2Z4d2O3dSOkxlt7EIoTp5aocN0AmKgLA4bNptg7uLJ1cEDgBVpIkf4j1PtIAwdpf
heiQLlZ3Eyl6JWfcM8DY66YPllWDZHiFzVx4DV5gIqsIyIjTKMCf6DugI5J1kbuU
IdfjCnmCWLZALtTPywIDAQABMA0GCSqGSIb3DQEBBQUAA4ICAQA5BVsb3j9oxZwG
6vD8Bo0KUdV5QV0//HBqeAjQLIwcwtm+AekwnelT+SObyqy5YOMUtWpo11NMVJWS
oCpW5ourWfZzmnIpzqMJ3FY9Xaxq587KNtFo9HJwmMPXhumrYB/pgZm3tAqdnILn
6eRzQJH1ehOl6v2+Rp6oJm/RWaUqRVeHQjZjAmUV5IYhyF55vdv7nrjwgiEpUsTA
2fwEHcVLxyGZpnW2RKh2r/We3LkXSIvlECMAIbsk8ttVMT4WL6POazNLhg3ulF8g
DVpzmiuhUAxnFLhc29mYcg/0nAcwQ5ua+lnfbWEBKaQ/VumsjeTN311JNgCeYNbp
rfqqDT3ZAHvrqNCbYHpySdYCckrVYr7hID6myp5Gp2zMRdplZXW30Qdlgb90JMP3
SQ4grwNq1A5jEJUyuZ8CBnWNCGHXXfC9Z7XogqBoCOTyGP4Gc68AYDpg++D+xCtl
+UN+jE/du1DLPxRDjr4e01r+3m/tRXeTd3fk593D6O4Pjh3cX1Zdorf1lE582EdI
KGQjpLsIz9LQVuZceg1MOXrk2vCfw9baPdnDkrc8OJDGP2yimUQZFLGq5rVogl6q
WTSD0rZgj5mnBWpvdeX3C4j0cqNyWJ3Q5SIoNjQz2IUYWEyjbxhA4Dull44yEazP
NIxlLlcbaaIlbJvAfqJxvX8GiWnxlw==
-----END CERTIFICATE-----
-----BEGIN RSA PRIVATE KEY-----
MIIJKwIBAAKCAgEAzSGTcoqJxaHxSe+5RSxJz2sxYdUZyDcwJm5Gpd08k1vvSJ6a
RUT06Lo3vG0h6ybIp11wKfVKURiG1qPOOu+6YG0KYtyESaUyEFvseW5ShhaXuROb
H8qrwybFtT8g69JDPR028LNBbJLx03/uLry/KaFdAoHeW+hJOhufOcSsHoLq7aSB
y7Z63qiOVwbYXj3wkmAeH1OiCa63xuw/wEOoaIMi6FuhlVIlnl3WcsUAHOtNDAUi
GTUoxXllwjSa+BBuNbBNAPz2RzOnYPinDJuJGGK3QXlCSvN3/l04SfT5trN4VY5N
EcOLULJIhhhiYxhXjIQmMsQHtGa4hQJGYD/dpOzaRhtU8jTkekTNSjgdDlwQE6qT
Xyi5e8YOBYvU8mc44XNnpTbVsXs5ItM9yvQ+nEb2g2WcdSl2HKx6ufJ1S+aKhLkH
mduNJr4CyKtwtx2fdKv9brIvV+ErdPgfFvK8lzOgLb2U69ZwUKyI5qdjjvBw4gAe
5Xas2+jspyNifCMlaaZZfaOixCFe1P+ZCkxwVPqmINmeHdjt3UjpMZbexCKE6eWq
HDdAJioCwOGzabYO7iydXBA4AVaSJH+I9T7SAMHaX4XokC5WdxMpeiVn3DPA2Oum
D5ZVg2R4hc1ceA1eYCKrCMiI0yjAn+g7oCOSdZG7lCHX4wp5gli2QC7Uz8sCAwEA
AQKCAgEApW7ssTWVgvPl2tEgw+7B4Cv8+X+ZeWU4yeWpyF6yWc2NHy36EN9Z/M8h
4C7LahAvRvsOWGhgdSKorDYTPmjUEKwf8jcR4Sr/Qz4/andUypsx5aswMeWLvKlq
TZAKBuXeIE2NX3XRz7R6ny3Pc5X5PaPLlRgTsl+Vnu1j7nz0qu6+dMV1gEs8sJGT
qg/1M5wUhphJ8s3KIrDrudwSVga6rP8FigtMN1a2zA+1wX2rZ6dEzerd4yKCLTCI
pqUyTdlCaL40fBWGsUmxNX2Ti5FscWQ7kuwuULAmF9gqa0rMkVIQPD+1XBwuIPiH
kM3dmzmoccSp4ctCw3UMXwjEpR8cqlG11K96lMC9IA0jfj10HxBhO7+0I1lhyJhq
RnZvGwjqGOGqZl+QXAHCrsqo3Q7l/jV/OBfdAOwHSqAO0IRjkyjdoaZovO1X4F+E
KckkPlKmMHIzf9Lgs7SQq6xTIdjU6WgyWdE9WyjXMfoKdEWudEg8ZQOIpXCpsQGe
S4SAPKoPtgqgTm2dFYXw8Zpp/96fdxmcdqrjPOVzGLeHQZpFELIA5Z5GhcWIY0iw
BZz5GyyHnMZyOVNjMCd47zpA031TfajQ5cyWJruR9YYoPnZjAh8F2aO8iXcal5Eg
y/hjtsDZhyNxj0S9RC13XZUro3klWQGQZQr3viqpwrVOlSLYupECggEBAPK08yqw
LWo/tXbYhLffimK11vUYwGQkrzXlJnDHeClaz85GjlZ+7sAhwGBCoOg+c8+zv+bI
j+5+vnelBEwaJbtdC2GZDhnBRTab5Vi6lBJryPihg/L9i4cvvjN0tK4elbBV5Xyz
5N24WH0lc/OCuMwphikvytfWNHU3Wn1aMuv6KMCacMZ4Fx+7a03KTFX0Y3z6Sj2m
MY1Z+xPlNP+vvXnovors71hjo42dNJcKQQYZAnaHCi8gayhWg/x+3Umt/V9miFr4
GdGpSHPTD6tYhyLPvtFAE+WWGPHbWz6gB+lLacyDDVwjdjXgl+HAalw4vrmcZgFa
vkhzhSZHifUhlhUCggEBANhdxMG0JBYlKr19htmheUvk/ncJZwLw6didWquf3Hzd
21cr14D03/6vMBbb22YV0B9QkdgPQ316A6UrL3fvaWoDhsl3TmYVyPIy/PLgkZ4E
N9nk+qaz/VK5z8t2REH4DkFyyKXSfCoo4L8Bu68vq4PqdCoFhlqHj5Oj4GbG6/dl
r3RKK7U6s8+6c27kKx+R+RmHTCBLT3Bg/KtLc81F5Ho9c3qH/joh0TJk/pCqauP3
duAV4BZUafc0g2f7sym3oSz3sCkR58eM7bfxnnlRCYRBuWO1jnrvkSOiMEHrUWG7
GcRhwxKETJL0vzR/pMTvNEmKc6dvfTBq4gKLBmN7Jl8CggEBAMrGB0so+iiEpbVv
XCLLLrEdv0Pys/p287ORibY70NasOmXaaN03G32GNVW3FPw0AUoMoU3NTwMw/Sy0
v4xdZBzPtcyKtU8rPApN4SVqbH+fcb7YIoeG8WW2q7AN106J2wICIcM4AQSFGdkk
y2UtV/uqzZ3ngg8ltZog7wc/rr+ctyODZKlMd/VY/mN1mqVNkzk9W316NngkLzMG
Emt0hlct7tPe9HDifii4qNFwDbdsebRRSl7pNN30ujzgOT1vkfp8jXuDQP778b5j
HfpH8k9RRdlJMdZkut6GKAuAZFuzV+c3rpfGQOLui7Zerf3yotYsJsUG7WdWrG24
4zfcIakCggEBALl2JuGi+AvDcA9dOenyb3aOo1CFzrbGqqvytXXHYcfmo8zk16TC
Qf6dTCtL6ZRnvi4ZceoxqzgzDkzV56p2nXUx8KdgjOMUaVqyOgA2XpuEIhu0GuYq
AkqW23cbuQaTCiUvrq307ll1ELCpW6eexPYeUdRzR+bxrDBxmDiA6mL11p9ntG90
Eg1NVQUIr64wAcXQI4DLDRzXBb4OvwSFlILzibjOOSy7MAZya4K1kUo3JL6QAbUi
RnKPoNPQ/JIVxSI2bdnGb1athlbV1XFH9VBYxgCh76+RCmfw7kyS2P9c0Yl0AzIs
FTcic4Mcpq/oGnmvI9OxzS1jcLedU6ySMyECggEBAINwxLzNNQVnlsC8t0kgo7LU
JU6gXP6BQqP+oNL+dy1HSKMkuALdRIdJ2BSXRDO3N3WQiFgnPVtUh8yf1SsG/XDS
/j4z6dfuJkOUGkG3acKvJNYYYawODtBXQ+TDYgJN60HTyEQm6hqKtKrsWt1nTYuH
PhKrB6WQVEgPbpSEVy0eR7Q8xhNL/rdC4EjVbAsfv6BZdUwd+FSxbQew2wkAl5U7
4tuimf6go8JK5gr7VA4Unpv582C0YGf5QCQXKINNkzsKxYoPhpzwFdo81t9T0a1U
ehqQfSb38efko7iwne7lgCnx+hfUQ1PTPUPFf1H7igjVl9MPRZKFoQRHf3WjzG4=
-----END RSA PRIVATE KEY-----
